target datalayout = "e-m:e-p270:32:32-p271:32:32-p272:64:64-i64:64-i128:128-f80:128-n8:16:32:64-S128"
target triple = "x86_64-pc-linux-gnu"

@stdout = external global ptr, align 8
@.str.71 = private unnamed_addr constant [20 x i8] c"DART_TEST_FROM_DART\00", align 1
@.str.72 = private unnamed_addr constant [26 x i8] c"DASHBOARD_TEST_FROM_CTEST\00", align 1
@.str.73 = private unnamed_addr constant [29 x i8] c"CTEST_INTERACTIVE_DEBUG_MODE\00", align 1
@.str.74 = private unnamed_addr constant [3 x i8] c"%s\00", align 1
@.str.75 = private unnamed_addr constant [2 x i8] c"\0A\00", align 1

; Function Attrs: mustprogress uwtable
define dso_local void @_ZN13cmSystemTools17MakefileColorEchoEiPKcbb(i32 noundef %0, ptr noundef %1, i1 noundef zeroext %2, i1 noundef zeroext %3) #6 align 2 {
  %5 = alloca i32, align 4
  %6 = alloca ptr, align 8
  %7 = alloca i8, align 1
  %8 = alloca i8, align 1
  %9 = alloca i32, align 4
  store i32 %0, ptr %5, align 4, !tbaa !46
  store ptr %1, ptr %6, align 8, !tbaa !33
  %10 = zext i1 %2 to i8
  store i8 %10, ptr %7, align 1, !tbaa !61
  %11 = zext i1 %3 to i8
  store i8 %11, ptr %8, align 1, !tbaa !61
  call void @llvm.lifetime.start.p0(i64 4, ptr %9) #3
  store i32 1024, ptr %9, align 4, !tbaa !46
  %12 = call noundef zeroext i1 @_ZN5cmsys11SystemTools6HasEnvEPKc(ptr noundef @.str.71)
  br i1 %12, label %17, label %13

13:                                               ; preds = %4
  %14 = call noundef zeroext i1 @_ZN5cmsys11SystemTools6HasEnvEPKc(ptr noundef @.str.72)
  br i1 %14, label %17, label %15

15:                                               ; preds = %13
  %16 = call noundef zeroext i1 @_ZN5cmsys11SystemTools6HasEnvEPKc(ptr noundef @.str.73)
  br i1 %16, label %17, label %18

17:                                               ; preds = %15, %13, %4
  store i32 0, ptr %9, align 4, !tbaa !46
  br label %18

18:                                               ; preds = %17, %15
  %19 = load i8, ptr %8, align 1, !tbaa !61, !range !75, !noundef !76
  %20 = trunc i8 %19 to i1
  br i1 %20, label %21, label %30

21:                                               ; preds = %18
  %22 = load i32, ptr %5, align 4, !tbaa !46
  %23 = icmp ne i32 %22, 0
  br i1 %23, label %24, label %30

24:                                               ; preds = %21
  %25 = load i32, ptr %5, align 4, !tbaa !46
  %26 = load i32, ptr %9, align 4, !tbaa !46
  %27 = or i32 %25, %26
  %28 = load ptr, ptr @stdout, align 8, !tbaa !116
  %29 = load ptr, ptr %6, align 8, !tbaa !33
  call void (i32, ptr, ptr, ...) @cmsysTerminal_cfprintf(i32 noundef %27, ptr noundef %28, ptr noundef @.str.74, ptr noundef %29)
  br label %34

30:                                               ; preds = %21, %18
  %31 = load ptr, ptr @stdout, align 8, !tbaa !116
  %32 = load ptr, ptr %6, align 8, !tbaa !33
  %33 = call i32 (ptr, ptr, ...) @fprintf(ptr noundef %31, ptr noundef @.str.74, ptr noundef %32) #3
  br label %34

34:                                               ; preds = %30, %24
  %35 = load i8, ptr %7, align 1, !tbaa !61, !range !75, !noundef !76
  %36 = trunc i8 %35 to i1
  br i1 %36, label %37, label %40

37:                                               ; preds = %34
  %38 = load ptr, ptr @stdout, align 8, !tbaa !116
  %39 = call i32 (ptr, ptr, ...) @fprintf(ptr noundef %38, ptr noundef @.str.75) #3
  br label %40

40:                                               ; preds = %37, %34
  call void @llvm.lifetime.end.p0(i64 4, ptr %9) #3
  ret void
}