; Function Attrs: mustprogress uwtable
define dso_local void @_ZN13cmSystemTools17MakefileColorEchoEiPKcbb(i32 noundef %0, ptr noundef %1, i1 noundef zeroext %2, i1 noundef zeroext %3) local_unnamed_addr #3 align 2 {
  %5 = tail call noundef zeroext i1 @_ZN5cmsys11SystemTools6HasEnvEPKc(ptr noundef nonnull @.str.71)
  br i1 %5, label %10, label %6

6:                                                ; preds = %4
  %7 = tail call noundef zeroext i1 @_ZN5cmsys11SystemTools6HasEnvEPKc(ptr noundef nonnull @.str.72)
  br i1 %7, label %10, label %8

8:                                                ; preds = %6
  %9 = tail call noundef zeroext i1 @_ZN5cmsys11SystemTools6HasEnvEPKc(ptr noundef nonnull @.str.73)
  br i1 %9, label %10, label %11

10:                                               ; preds = %8, %6, %4
  br label %11

11:                                               ; preds = %10, %8
  %.0 = phi i32 [ 0, %10 ], [ 1024, %8 ]
  %12 = icmp ne i32 %0, 0
  %or.cond = and i1 %12, %3
  br i1 %or.cond, label %13, label %16

13:                                               ; preds = %11
  %14 = or i32 %.0, %0
  %15 = load ptr, ptr @stdout, align 8, !tbaa !140
  tail call void (i32, ptr, ptr, ...) @cmsysTerminal_cfprintf(i32 noundef %14, ptr noundef %15, ptr noundef nonnull @.str.74, ptr noundef %1)
  br label %18

16:                                               ; preds = %11
  %17 = load ptr, ptr @stdout, align 8, !tbaa !140
  %fputs = tail call i32 @fputs(ptr %1, ptr %17)
  br label %18

18:                                               ; preds = %16, %13
  br i1 %2, label %19, label %21

19:                                               ; preds = %18
  %20 = load ptr, ptr @stdout, align 8, !tbaa !140
  %fputc = tail call i32 @fputc(i32 10, ptr %20)
  br label %21

21:                                               ; preds = %19, %18
  ret void
}